target datalayout = "e-m:e-p270:32:32-p271:32:32-p272:64:64-i64:64-i128:128-f80:128-n8:16:32:64-S128"
target triple = "x86_64-pc-linux-gnu"

%"class.gmx::OptionsAssigner::Impl" = type <{ ptr, i8, [7 x i8], %"class.std::vector", ptr, i32, i8, [3 x i8] }>
%"class.std::vector" = type { %"struct.std::_Vector_base" }
%"struct.std::_Vector_base" = type { %"struct.std::_Vector_base<gmx::internal::OptionSectionImpl *, std::allocator<gmx::internal::OptionSectionImpl *>>::_Vector_impl" }
%"struct.std::_Vector_base<gmx::internal::OptionSectionImpl *, std::allocator<gmx::internal::OptionSectionImpl *>>::_Vector_impl" = type { %"struct.std::_Vector_base<gmx::internal::OptionSectionImpl *, std::allocator<gmx::internal::OptionSectionImpl *>>::_Vector_impl_data" }
%"struct.std::_Vector_base<gmx::internal::OptionSectionImpl *, std::allocator<gmx::internal::OptionSectionImpl *>>::_Vector_impl_data" = type { ptr, ptr, ptr }
%"class.gmx::OptionsAssigner" = type { %"class.std::unique_ptr.34" }
%"class.std::unique_ptr.34" = type { %"struct.std::__uniq_ptr_data.35" }
%"struct.std::__uniq_ptr_data.35" = type { %"class.std::__uniq_ptr_impl.36" }
%"class.std::__uniq_ptr_impl.36" = type { %"class.std::tuple.37" }
%"class.std::tuple.37" = type { %"struct.std::_Tuple_impl.38" }
%"struct.std::_Tuple_impl.38" = type { %"struct.std::_Head_base.41" }
%"struct.std::_Head_base.41" = type { ptr }
%class.anon.63 = type { i8 }
%class.anon.65 = type { i8 }

@.str.1 = private unnamed_addr constant [133 x i8] c"generated/home/dtcxzyw/WorkSpace/Projects/compilers/llvm-opt-benchmark/bench/gromacs/gromacs/src/gromacs/options/optionsassigner.cpp\00", align 1
@.str.6 = private unnamed_addr constant [33 x i8] c"impl_->currentOption_ == nullptr\00", align 1
@.str.7 = private unnamed_addr constant [26 x i8] c"finishOption() not called\00", align 1
@"__PRETTY_FUNCTION__._ZZN3gmx15OptionsAssigner6finishEvENK3$_0clEv" = private unnamed_addr constant [75 x i8] c"auto gmx::OptionsAssigner::finish()::(anonymous class)::operator()() const\00", align 1
@.str.12 = private unnamed_addr constant [20 x i8] c"!impl_->inSection()\00", align 1
@.str.13 = private unnamed_addr constant [27 x i8] c"finishSection() not called\00", align 1

; Function Attrs: mustprogress nounwind uwtable
define linkonce_odr noundef nonnull align 8 dereferenceable(8) ptr @_ZNSt10_Head_baseILm0EPN3gmx15OptionsAssigner4ImplELb0EE7_M_headERKS4_(ptr noundef nonnull align 8 dereferenceable(8) %0) #1 comdat align 2 {
  %2 = alloca ptr, align 8
  store ptr %0, ptr %2, align 8, !tbaa !200
  %3 = load ptr, ptr %2, align 8, !tbaa !200
  %4 = getelementptr inbounds nuw %"struct.std::_Head_base.41", ptr %3, i32 0, i32 0
  ret ptr %4
}

; Function Attrs: mustprogress nounwind uwtable
define linkonce_odr noundef nonnull align 8 dereferenceable(8) ptr @_ZNSt11_Tuple_implILm0EJPN3gmx15OptionsAssigner4ImplESt14default_deleteIS2_EEE7_M_headERKS6_(ptr noundef nonnull align 8 dereferenceable(8) %0) #1 comdat align 2 {
  %2 = alloca ptr, align 8
  store ptr %0, ptr %2, align 8, !tbaa !196
  %3 = load ptr, ptr %2, align 8, !tbaa !196
  %4 = call noundef nonnull align 8 dereferenceable(8) ptr @_ZNSt10_Head_baseILm0EPN3gmx15OptionsAssigner4ImplELb0EE7_M_headERKS4_(ptr noundef nonnull align 8 dereferenceable(8) %3) #17
  ret ptr %4
}

; Function Attrs: mustprogress nounwind uwtable
define linkonce_odr noundef nonnull align 8 dereferenceable(8) ptr @_ZSt12__get_helperILm0EPN3gmx15OptionsAssigner4ImplEJSt14default_deleteIS2_EEERKT0_RKSt11_Tuple_implIXT_EJS6_DpT1_EE(ptr noundef nonnull align 8 dereferenceable(8) %0) #1 comdat {
  %2 = alloca ptr, align 8
  store ptr %0, ptr %2, align 8, !tbaa !196
  %3 = load ptr, ptr %2, align 8, !tbaa !196
  %4 = call noundef nonnull align 8 dereferenceable(8) ptr @_ZNSt11_Tuple_implILm0EJPN3gmx15OptionsAssigner4ImplESt14default_deleteIS2_EEE7_M_headERKS6_(ptr noundef nonnull align 8 dereferenceable(8) %3) #17
  ret ptr %4
}

; Function Attrs: mustprogress nounwind uwtable
define linkonce_odr noundef nonnull align 8 dereferenceable(8) ptr @_ZSt3getILm0EJPN3gmx15OptionsAssigner4ImplESt14default_deleteIS2_EEERKNSt13tuple_elementIXT_ESt5tupleIJDpT0_EEE4typeERKSA_(ptr noundef nonnull align 8 dereferenceable(8) %0) #1 comdat {
  %2 = alloca ptr, align 8
  store ptr %0, ptr %2, align 8, !tbaa !194
  %3 = load ptr, ptr %2, align 8, !tbaa !194
  %4 = call noundef nonnull align 8 dereferenceable(8) ptr @_ZSt12__get_helperILm0EPN3gmx15OptionsAssigner4ImplEJSt14default_deleteIS2_EEERKT0_RKSt11_Tuple_implIXT_EJS6_DpT1_EE(ptr noundef nonnull align 8 dereferenceable(8) %3) #17
  ret ptr %4
}

; Function Attrs: mustprogress nounwind uwtable
define linkonce_odr noundef ptr @_ZNKSt15__uniq_ptr_implIN3gmx15OptionsAssigner4ImplESt14default_deleteIS2_EE6_M_ptrEv(ptr noundef nonnull align 8 dereferenceable(8) %0) #1 comdat align 2 {
  %2 = alloca ptr, align 8
  store ptr %0, ptr %2, align 8, !tbaa !192
  %3 = load ptr, ptr %2, align 8
  %4 = getelementptr inbounds nuw %"class.std::__uniq_ptr_impl.36", ptr %3, i32 0, i32 0
  %5 = call noundef nonnull align 8 dereferenceable(8) ptr @_ZSt3getILm0EJPN3gmx15OptionsAssigner4ImplESt14default_deleteIS2_EEERKNSt13tuple_elementIXT_ESt5tupleIJDpT0_EEE4typeERKSA_(ptr noundef nonnull align 8 dereferenceable(8) %4) #17
  %6 = load ptr, ptr %5, align 8, !tbaa !3
  ret ptr %6
}

; Function Attrs: mustprogress nounwind uwtable
define linkonce_odr noundef i64 @_ZNKSt6vectorIPN3gmx8internal17OptionSectionImplESaIS3_EE4sizeEv(ptr noundef nonnull align 8 dereferenceable(24) %0) #1 comdat align 2 {
  %2 = alloca ptr, align 8
  store ptr %0, ptr %2, align 8, !tbaa !27
  %3 = load ptr, ptr %2, align 8
  %4 = getelementptr inbounds nuw %"struct.std::_Vector_base", ptr %3, i32 0, i32 0
  %5 = getelementptr inbounds nuw %"struct.std::_Vector_base<gmx::internal::OptionSectionImpl *, std::allocator<gmx::internal::OptionSectionImpl *>>::_Vector_impl_data", ptr %4, i32 0, i32 1
  %6 = load ptr, ptr %5, align 8, !tbaa !33
  %7 = getelementptr inbounds nuw %"struct.std::_Vector_base", ptr %3, i32 0, i32 0
  %8 = getelementptr inbounds nuw %"struct.std::_Vector_base<gmx::internal::OptionSectionImpl *, std::allocator<gmx::internal::OptionSectionImpl *>>::_Vector_impl_data", ptr %7, i32 0, i32 0
  %9 = load ptr, ptr %8, align 8, !tbaa !32
  %10 = ptrtoint ptr %6 to i64
  %11 = ptrtoint ptr %9 to i64
  %12 = sub i64 %10, %11
  %13 = sdiv exact i64 %12, 8
  ret i64 %13
}

; Function Attrs: mustprogress nounwind uwtable
define linkonce_odr noundef ptr @_ZNKSt10unique_ptrIN3gmx15OptionsAssigner4ImplESt14default_deleteIS2_EE3getEv(ptr noundef nonnull align 8 dereferenceable(8) %0) #1 comdat align 2 {
  %2 = alloca ptr, align 8
  store ptr %0, ptr %2, align 8, !tbaa !43
  %3 = load ptr, ptr %2, align 8
  %4 = getelementptr inbounds nuw %"class.std::unique_ptr.34", ptr %3, i32 0, i32 0
  %5 = call noundef ptr @_ZNKSt15__uniq_ptr_implIN3gmx15OptionsAssigner4ImplESt14default_deleteIS2_EE6_M_ptrEv(ptr noundef nonnull align 8 dereferenceable(8) %4) #17
  ret ptr %5
}

; Function Attrs: inlinehint mustprogress uwtable
define internal void @"_ZZN3gmx15OptionsAssigner6finishEvENK3$_1clEv"(ptr noundef nonnull align 1 dereferenceable(1) %0) #3 align 2 {
  %2 = alloca ptr, align 8
  store ptr %0, ptr %2, align 8, !tbaa !40
  call void @_ZN3gmx8internal13assertHandlerEPKcS2_S2_S2_i(ptr noundef @.str.12, ptr noundef @.str.13, ptr noundef @"__PRETTY_FUNCTION__._ZZN3gmx15OptionsAssigner6finishEvENK3$_0clEv", ptr noundef @.str.1, i32 noundef 252) #19
  unreachable
}

; Function Attrs: mustprogress nounwind uwtable
define linkonce_odr noundef zeroext i1 @_ZNK3gmx15OptionsAssigner4Impl9inSectionEv(ptr noundef nonnull align 8 dereferenceable(53) %0) #1 comdat align 2 {
  %2 = alloca ptr, align 8
  store ptr %0, ptr %2, align 8, !tbaa !3
  %3 = load ptr, ptr %2, align 8
  %4 = getelementptr inbounds nuw %"class.gmx::OptionsAssigner::Impl", ptr %3, i32 0, i32 3
  %5 = call noundef i64 @_ZNKSt6vectorIPN3gmx8internal17OptionSectionImplESaIS3_EE4sizeEv(ptr noundef nonnull align 8 dereferenceable(24) %4) #17
  %6 = icmp ugt i64 %5, 1
  ret i1 %6
}

; Function Attrs: inlinehint mustprogress uwtable
define internal void @"_ZZN3gmx15OptionsAssigner6finishEvENK3$_0clEv"(ptr noundef nonnull align 1 dereferenceable(1) %0) #3 align 2 {
  %2 = alloca ptr, align 8
  store ptr %0, ptr %2, align 8, !tbaa !40
  call void @_ZN3gmx8internal13assertHandlerEPKcS2_S2_S2_i(ptr noundef @.str.6, ptr noundef @.str.7, ptr noundef @"__PRETTY_FUNCTION__._ZZN3gmx15OptionsAssigner6finishEvENK3$_0clEv", ptr noundef @.str.1, i32 noundef 251) #19
  unreachable
}

; Function Attrs: mustprogress nounwind uwtable
define linkonce_odr noundef ptr @_ZNKSt10unique_ptrIN3gmx15OptionsAssigner4ImplESt14default_deleteIS2_EEptEv(ptr noundef nonnull align 8 dereferenceable(8) %0) #1 comdat align 2 {
  %2 = alloca ptr, align 8
  store ptr %0, ptr %2, align 8, !tbaa !43
  %3 = load ptr, ptr %2, align 8
  %4 = call noundef ptr @_ZNKSt10unique_ptrIN3gmx15OptionsAssigner4ImplESt14default_deleteIS2_EE3getEv(ptr noundef nonnull align 8 dereferenceable(8) %3) #17
  ret ptr %4
}

; Function Attrs: mustprogress uwtable
define void @_ZN3gmx15OptionsAssigner6finishEv(ptr noundef nonnull align 8 dereferenceable(8) %0) #0 align 2 {
  %2 = alloca ptr, align 8
  %3 = alloca %class.anon.63, align 1
  %4 = alloca %class.anon.65, align 1
  store ptr %0, ptr %2, align 8, !tbaa !41
  %5 = load ptr, ptr %2, align 8
  %6 = getelementptr inbounds nuw %"class.gmx::OptionsAssigner", ptr %5, i32 0, i32 0
  %7 = call noundef ptr @_ZNKSt10unique_ptrIN3gmx15OptionsAssigner4ImplESt14default_deleteIS2_EEptEv(ptr noundef nonnull align 8 dereferenceable(8) %6) #17
  %8 = getelementptr inbounds nuw %"class.gmx::OptionsAssigner::Impl", ptr %7, i32 0, i32 4
  %9 = load ptr, ptr %8, align 8, !tbaa !21
  %10 = icmp eq ptr %9, null
  call void @llvm.lifetime.start.p0(i64 1, ptr %3) #17
  br i1 %10, label %11, label %12

11:                                               ; preds = %1
  br label %13

12:                                               ; preds = %1
  call void @"_ZZN3gmx15OptionsAssigner6finishEvENK3$_0clEv"(ptr noundef nonnull align 1 dereferenceable(1) %3)
  br label %13

13:                                               ; preds = %12, %11
  call void @llvm.lifetime.end.p0(i64 1, ptr %3) #17
  %14 = getelementptr inbounds nuw %"class.gmx::OptionsAssigner", ptr %5, i32 0, i32 0
  %15 = call noundef ptr @_ZNKSt10unique_ptrIN3gmx15OptionsAssigner4ImplESt14default_deleteIS2_EEptEv(ptr noundef nonnull align 8 dereferenceable(8) %14) #17
  %16 = call noundef zeroext i1 @_ZNK3gmx15OptionsAssigner4Impl9inSectionEv(ptr noundef nonnull align 8 dereferenceable(53) %15)
  call void @llvm.lifetime.start.p0(i64 1, ptr %4) #17
  br i1 %16, label %18, label %17

17:                                               ; preds = %13
  br label %19

18:                                               ; preds = %13
  call void @"_ZZN3gmx15OptionsAssigner6finishEvENK3$_1clEv"(ptr noundef nonnull align 1 dereferenceable(1) %4)
  br label %19

19:                                               ; preds = %18, %17
  call void @llvm.lifetime.end.p0(i64 1, ptr %4) #17
  ret void
}