; Function Attrs: mustprogress uwtable
define void @_ZN3gmx15OptionsAssigner6finishEv(ptr noundef nonnull readonly align 8 captures(none) dereferenceable(8) %0) local_unnamed_addr #0 align 2 {
  %2 = load ptr, ptr %0, align 8, !tbaa !32
  %3 = getelementptr inbounds nuw i8, ptr %2, i64 40
  %4 = load ptr, ptr %3, align 8, !tbaa !26
  %5 = icmp eq ptr %4, null
  br i1 %5, label %7, label %6

6:                                                ; preds = %1
  tail call void @_ZN3gmx8internal13assertHandlerEPKcS2_S2_S2_i(ptr noundef nonnull @.str.6, ptr noundef nonnull @.str.7, ptr noundef nonnull @"__PRETTY_FUNCTION__._ZZN3gmx15OptionsAssigner6finishEvENK3$_0clEv", ptr noundef nonnull @.str.1, i32 noundef 251) #20
  unreachable

7:                                                ; preds = %1
  %8 = getelementptr inbounds nuw i8, ptr %2, i64 16
  %9 = getelementptr inbounds nuw i8, ptr %2, i64 24
  %10 = load ptr, ptr %9, align 8, !tbaa !24
  %11 = load ptr, ptr %8, align 8, !tbaa !23
  %12 = ptrtoint ptr %10 to i64
  %13 = ptrtoint ptr %11 to i64
  %14 = sub i64 %12, %13
  %15 = icmp ugt i64 %14, 8
  br i1 %15, label %16, label %17

16:                                               ; preds = %7
  tail call void @_ZN3gmx8internal13assertHandlerEPKcS2_S2_S2_i(ptr noundef nonnull @.str.12, ptr noundef nonnull @.str.13, ptr noundef nonnull @"__PRETTY_FUNCTION__._ZZN3gmx15OptionsAssigner6finishEvENK3$_0clEv", ptr noundef nonnull @.str.1, i32 noundef 252) #20
  unreachable

17:                                               ; preds = %7
  ret void
}